target datalayout = "e-m:e-p270:32:32-p271:32:32-p272:64:64-i64:64-i128:128-f80:128-n8:16:32:64-S128"
target triple = "x86_64-pc-linux-gnu"

; Function Attrs: alwaysinline nounwind
define internal ptr @memcpy.inline(ptr noalias %0, ptr noalias %1, i64 %2) #4 {
  %4 = alloca ptr, align 8
  %5 = alloca ptr, align 8
  %6 = alloca i64, align 8
  store ptr %0, ptr %4, align 8
  store ptr %1, ptr %5, align 8
  store i64 %2, ptr %6, align 8
  %7 = load ptr, ptr %4, align 8
  %8 = load ptr, ptr %5, align 8
  %9 = load i64, ptr %6, align 8
  %10 = load ptr, ptr %4, align 8
  %11 = call i64 @llvm.objectsize.i64.p0(ptr %10, i1 false, i1 true, i1 true)
  %12 = call ptr @__memcpy_chk(ptr noundef %7, ptr noundef %8, i64 noundef %9, i64 noundef %11) #13
  ret ptr %12
}

; Function Attrs: null_pointer_is_valid sspstrong uwtable
define hidden zeroext i16 @blf_get_xml_channel_number(ptr noundef %0, ptr noundef %1) #2 {
  %3 = alloca i16, align 2
  %4 = alloca ptr, align 8
  %5 = alloca ptr, align 8
  %6 = alloca ptr, align 8
  %7 = alloca i64, align 8
  %8 = alloca i16, align 2
  %9 = alloca i32, align 4
  store ptr %0, ptr %4, align 8
  store ptr %1, ptr %5, align 8
  call void @llvm.lifetime.start.p0(i64 8, ptr %6) #13
  call void @llvm.lifetime.start.p0(i64 8, ptr %7) #13
  call void @llvm.lifetime.start.p0(i64 2, ptr %8) #13
  %10 = load ptr, ptr %4, align 8
  %11 = icmp eq ptr %10, null
  br i1 %11, label %19, label %12

12:                                               ; preds = %2
  %13 = load ptr, ptr %5, align 8
  %14 = icmp eq ptr %13, null
  br i1 %14, label %19, label %15

15:                                               ; preds = %12
  %16 = load ptr, ptr %5, align 8
  %17 = load ptr, ptr %4, align 8
  %18 = icmp ule ptr %16, %17
  br i1 %18, label %19, label %20

19:                                               ; preds = %15, %12, %2
  store i16 -1, ptr %3, align 2
  store i32 1, ptr %9, align 4
  br label %49

20:                                               ; preds = %15
  %21 = load ptr, ptr %5, align 8
  %22 = load ptr, ptr %4, align 8
  %23 = ptrtoint ptr %21 to i64
  %24 = ptrtoint ptr %22 to i64
  %25 = sub i64 %23, %24
  store i64 %25, ptr %7, align 8
  %26 = load i64, ptr %7, align 8
  %27 = add i64 %26, 1
  %28 = call noalias ptr @g_try_malloc(i64 noundef %27) #14
  store ptr %28, ptr %6, align 8
  %29 = load ptr, ptr %6, align 8
  %30 = icmp eq ptr %29, null
  br i1 %30, label %31, label %35

31:                                               ; preds = %20
  br label %32

32:                                               ; preds = %31
  br label %33

33:                                               ; preds = %32
  br label %34

34:                                               ; preds = %33
  store i16 -1, ptr %3, align 2
  store i32 1, ptr %9, align 4
  br label %49

35:                                               ; preds = %20
  %36 = load ptr, ptr %6, align 8
  %37 = load ptr, ptr %4, align 8
  %38 = load i64, ptr %7, align 8
  %39 = call ptr @memcpy.inline(ptr noundef %36, ptr noundef %37, i64 noundef %38) #13
  %40 = load ptr, ptr %6, align 8
  %41 = load i64, ptr %7, align 8
  %42 = getelementptr i8, ptr %40, i64 %41
  store i8 0, ptr %42, align 1
  %43 = load ptr, ptr %6, align 8
  %44 = call zeroext i1 @ws_strtou16(ptr noundef %43, ptr noundef null, ptr noundef %8)
  br i1 %44, label %46, label %45

45:                                               ; preds = %35
  store i16 -1, ptr %8, align 2
  br label %46

46:                                               ; preds = %45, %35
  %47 = load ptr, ptr %6, align 8
  call void @g_free(ptr noundef %47)
  %48 = load i16, ptr %8, align 2
  store i16 %48, ptr %3, align 2
  store i32 1, ptr %9, align 4
  br label %49

49:                                               ; preds = %46, %34, %19
  call void @llvm.lifetime.end.p0(i64 2, ptr %8) #13
  call void @llvm.lifetime.end.p0(i64 8, ptr %7) #13
  call void @llvm.lifetime.end.p0(i64 8, ptr %6) #13
  %50 = load i16, ptr %3, align 2
  ret i16 %50
}