; Function Attrs: null_pointer_is_valid sspstrong uwtable
define hidden zeroext i16 @blf_get_xml_channel_number(ptr noundef %0, ptr noundef %1) local_unnamed_addr #2 {
  %3 = alloca i16, align 2
  call void @llvm.lifetime.start.p0(i64 2, ptr nonnull %3) #14
  %4 = icmp ne ptr %0, null
  %.not = icmp ugt ptr %1, %0
  %or.cond19 = and i1 %4, %.not
  br i1 %or.cond19, label %5, label %20

5:                                                ; preds = %2
  %6 = ptrtoint ptr %1 to i64
  %7 = ptrtoint ptr %0 to i64
  %8 = sub i64 %6, %7
  %9 = add i64 %8, 1
  %10 = tail call noalias ptr @g_try_malloc(i64 noundef %9) #15
  %11 = icmp eq ptr %10, null
  br i1 %11, label %20, label %12

12:                                               ; preds = %5
  %13 = icmp ne i64 %9, -1
  tail call void @llvm.assume(i1 %13)
  %14 = tail call ptr @__memcpy_chk(ptr noundef nonnull %10, ptr noundef nonnull %0, i64 noundef %8, i64 noundef %9) #14, !alias.scope !6
  %15 = getelementptr i8, ptr %10, i64 %8
  store i8 0, ptr %15, align 1
  %16 = call zeroext i1 @ws_strtou16(ptr noundef nonnull %10, ptr noundef null, ptr noundef nonnull %3)
  br i1 %16, label %18, label %17

17:                                               ; preds = %12
  store i16 -1, ptr %3, align 2
  br label %18

18:                                               ; preds = %17, %12
  call void @g_free(ptr noundef nonnull %10)
  %19 = load i16, ptr %3, align 2
  br label %20

20:                                               ; preds = %5, %2, %18
  %.0 = phi i16 [ %19, %18 ], [ -1, %2 ], [ -1, %5 ]
  call void @llvm.lifetime.end.p0(i64 2, ptr nonnull %3) #14
  ret i16 %.0
}